target datalayout = "e-m:e-p270:32:32-p271:32:32-p272:64:64-i64:64-i128:128-f80:128-n8:16:32:64-S128"
target triple = "x86_64-unknown-linux-gnu"

%"class.std::variant" = type { %"struct.std::__detail::__variant::_Variant_base.base", [7 x i8] }
%"struct.std::__detail::__variant::_Variant_base.base" = type { %"struct.std::__detail::__variant::_Move_assign_base.base" }
%"struct.std::__detail::__variant::_Move_assign_base.base" = type { %"struct.std::__detail::__variant::_Copy_assign_base.base" }
%"struct.std::__detail::__variant::_Copy_assign_base.base" = type { %"struct.std::__detail::__variant::_Move_ctor_base.base" }
%"struct.std::__detail::__variant::_Move_ctor_base.base" = type { %"struct.std::__detail::__variant::_Copy_ctor_base.base" }
%"struct.std::__detail::__variant::_Copy_ctor_base.base" = type { %"struct.std::__detail::__variant::_Variant_storage.base" }
%"struct.std::__detail::__variant::_Variant_storage.base" = type <{ %"union.std::__detail::__variant::_Variadic_union", i8 }>
%"union.std::__detail::__variant::_Variadic_union" = type { %"union.std::__detail::__variant::_Variadic_union.202" }
%"union.std::__detail::__variant::_Variadic_union.202" = type { %"union.std::__detail::__variant::_Variadic_union.204" }
%"union.std::__detail::__variant::_Variadic_union.204" = type { %"struct.std::__detail::__variant::_Uninitialized.205" }
%"struct.std::__detail::__variant::_Uninitialized.205" = type { ptr }
%"class.hermes::ESTree::Node" = type { %"class.llvh::ilist_node", i32, i32, %"class.llvh::SMRange", %"class.llvh::SMLoc" }
%"class.llvh::ilist_node" = type { %"class.llvh::ilist_node_impl" }
%"class.llvh::ilist_node_impl" = type { %"class.llvh::ilist_node_base" }
%"class.llvh::ilist_node_base" = type { ptr, ptr }
%"class.llvh::SMRange" = type { %"class.llvh::SMLoc", %"class.llvh::SMLoc" }
%"class.llvh::SMLoc" = type { ptr }
%"class.hermes::ESTree::ClassPropertyNode" = type { %"class.hermes::ESTree::Node", ptr, ptr, i8, i8, i8, i8, ptr, ptr, ptr }

; Function Attrs: mustprogress nounwind uwtable
define internal void @_ZN6hermes6ESTree24RecursiveVisitorDispatchINS_12_GLOBAL__N_119DependencyExtractorELb1EE5visitERS3_bPNS0_4NodeE(ptr noundef nonnull align 8 dereferenceable(145) %0, i1 noundef zeroext %1, ptr noundef %2) #0 align 2 {
entry:
  %.addr = alloca ptr, align 8
  %.addr1 = alloca i8, align 1
  %.addr2 = alloca ptr, align 8
  store ptr %0, ptr %.addr, align 8
  %frombool = zext i1 %1 to i8
  store i8 %frombool, ptr %.addr1, align 1
  store ptr %2, ptr %.addr2, align 8
  ret void
}

; Function Attrs: mustprogress nounwind uwtable
define internal void @_ZN6hermes6ESTree24RecursiveVisitorDispatchINS_12_GLOBAL__N_119DependencyExtractorELb1EE13visitChildrenERS3_PNS0_17ClassPropertyNodeE(ptr noundef nonnull align 8 dereferenceable(145) %v, ptr noundef %node) #0 align 2 {
entry:
  %v.addr = alloca ptr, align 8
  %node.addr = alloca ptr, align 8
  %coerce = alloca %"class.std::variant", align 8
  %coerce2 = alloca %"class.std::variant", align 8
  %coerce10 = alloca %"class.std::variant", align 8
  %coerce12 = alloca %"class.std::variant", align 8
  %coerce14 = alloca %"class.std::variant", align 8
  store ptr %v, ptr %v.addr, align 8
  store ptr %node, ptr %node.addr, align 8
  %0 = load ptr, ptr %v.addr, align 8
  %1 = load ptr, ptr %node.addr, align 8
  %_key = getelementptr inbounds %"class.hermes::ESTree::ClassPropertyNode", ptr %1, i32 0, i32 1
  %2 = load ptr, ptr %_key, align 8
  %3 = load ptr, ptr %node.addr, align 8
  %call = call { ptr, i8 } @_ZN6hermes6ESTree24RecursiveVisitorDispatchINS_12_GLOBAL__N_119DependencyExtractorELb1EE5visitERS3_PNS0_4NodeES7_(ptr noundef nonnull align 8 dereferenceable(145) %0, ptr noundef %2, ptr noundef %3)
  %4 = getelementptr inbounds { ptr, i8 }, ptr %coerce, i32 0, i32 0
  %5 = extractvalue { ptr, i8 } %call, 0
  store ptr %5, ptr %4, align 8
  %6 = getelementptr inbounds { ptr, i8 }, ptr %coerce, i32 0, i32 1
  %7 = extractvalue { ptr, i8 } %call, 1
  store i8 %7, ptr %6, align 8
  %8 = load ptr, ptr %v.addr, align 8
  %9 = load ptr, ptr %node.addr, align 8
  %_value = getelementptr inbounds %"class.hermes::ESTree::ClassPropertyNode", ptr %9, i32 0, i32 2
  %10 = load ptr, ptr %_value, align 8
  %11 = load ptr, ptr %node.addr, align 8
  %call1 = call { ptr, i8 } @_ZN6hermes6ESTree24RecursiveVisitorDispatchINS_12_GLOBAL__N_119DependencyExtractorELb1EE5visitERS3_PNS0_4NodeES7_(ptr noundef nonnull align 8 dereferenceable(145) %8, ptr noundef %10, ptr noundef %11)
  %12 = getelementptr inbounds { ptr, i8 }, ptr %coerce2, i32 0, i32 0
  %13 = extractvalue { ptr, i8 } %call1, 0
  store ptr %13, ptr %12, align 8
  %14 = getelementptr inbounds { ptr, i8 }, ptr %coerce2, i32 0, i32 1
  %15 = extractvalue { ptr, i8 } %call1, 1
  store i8 %15, ptr %14, align 8
  %16 = load ptr, ptr %v.addr, align 8
  %17 = load ptr, ptr %node.addr, align 8
  %_computed = getelementptr inbounds %"class.hermes::ESTree::ClassPropertyNode", ptr %17, i32 0, i32 3
  %18 = load i8, ptr %_computed, align 8
  %tobool = trunc i8 %18 to i1
  %19 = load ptr, ptr %node.addr, align 8
  call void @_ZN6hermes6ESTree24RecursiveVisitorDispatchINS_12_GLOBAL__N_119DependencyExtractorELb1EE5visitERS3_bPNS0_4NodeE(ptr noundef nonnull align 8 dereferenceable(145) %16, i1 noundef zeroext %tobool, ptr noundef %19)
  %20 = load ptr, ptr %v.addr, align 8
  %21 = load ptr, ptr %node.addr, align 8
  %_static = getelementptr inbounds %"class.hermes::ESTree::ClassPropertyNode", ptr %21, i32 0, i32 4
  %22 = load i8, ptr %_static, align 1
  %tobool3 = trunc i8 %22 to i1
  %23 = load ptr, ptr %node.addr, align 8
  call void @_ZN6hermes6ESTree24RecursiveVisitorDispatchINS_12_GLOBAL__N_119DependencyExtractorELb1EE5visitERS3_bPNS0_4NodeE(ptr noundef nonnull align 8 dereferenceable(145) %20, i1 noundef zeroext %tobool3, ptr noundef %23)
  %24 = load ptr, ptr %v.addr, align 8
  %25 = load ptr, ptr %node.addr, align 8
  %_declare = getelementptr inbounds %"class.hermes::ESTree::ClassPropertyNode", ptr %25, i32 0, i32 5
  %26 = load i8, ptr %_declare, align 2
  %tobool5 = trunc i8 %26 to i1
  %27 = load ptr, ptr %node.addr, align 8
  call void @_ZN6hermes6ESTree24RecursiveVisitorDispatchINS_12_GLOBAL__N_119DependencyExtractorELb1EE5visitERS3_bPNS0_4NodeE(ptr noundef nonnull align 8 dereferenceable(145) %24, i1 noundef zeroext %tobool5, ptr noundef %27)
  %28 = load ptr, ptr %v.addr, align 8
  %29 = load ptr, ptr %node.addr, align 8
  %_optional = getelementptr inbounds %"class.hermes::ESTree::ClassPropertyNode", ptr %29, i32 0, i32 6
  %30 = load i8, ptr %_optional, align 1
  %tobool7 = trunc i8 %30 to i1
  %31 = load ptr, ptr %node.addr, align 8
  call void @_ZN6hermes6ESTree24RecursiveVisitorDispatchINS_12_GLOBAL__N_119DependencyExtractorELb1EE5visitERS3_bPNS0_4NodeE(ptr noundef nonnull align 8 dereferenceable(145) %28, i1 noundef zeroext %tobool7, ptr noundef %31)
  %32 = load ptr, ptr %v.addr, align 8
  %33 = load ptr, ptr %node.addr, align 8
  %_variance = getelementptr inbounds %"class.hermes::ESTree::ClassPropertyNode", ptr %33, i32 0, i32 7
  %34 = load ptr, ptr %_variance, align 8
  %35 = load ptr, ptr %node.addr, align 8
  %call9 = call { ptr, i8 } @_ZN6hermes6ESTree24RecursiveVisitorDispatchINS_12_GLOBAL__N_119DependencyExtractorELb1EE5visitERS3_PNS0_4NodeES7_(ptr noundef nonnull align 8 dereferenceable(145) %32, ptr noundef %34, ptr noundef %35)
  %36 = getelementptr inbounds { ptr, i8 }, ptr %coerce10, i32 0, i32 0
  %37 = extractvalue { ptr, i8 } %call9, 0
  store ptr %37, ptr %36, align 8
  %38 = getelementptr inbounds { ptr, i8 }, ptr %coerce10, i32 0, i32 1
  %39 = extractvalue { ptr, i8 } %call9, 1
  store i8 %39, ptr %38, align 8
  %40 = load ptr, ptr %v.addr, align 8
  %41 = load ptr, ptr %node.addr, align 8
  %_typeAnnotation = getelementptr inbounds %"class.hermes::ESTree::ClassPropertyNode", ptr %41, i32 0, i32 8
  %42 = load ptr, ptr %_typeAnnotation, align 8
  %43 = load ptr, ptr %node.addr, align 8
  %call11 = call { ptr, i8 } @_ZN6hermes6ESTree24RecursiveVisitorDispatchINS_12_GLOBAL__N_119DependencyExtractorELb1EE5visitERS3_PNS0_4NodeES7_(ptr noundef nonnull align 8 dereferenceable(145) %40, ptr noundef %42, ptr noundef %43)
  %44 = getelementptr inbounds { ptr, i8 }, ptr %coerce12, i32 0, i32 0
  %45 = extractvalue { ptr, i8 } %call11, 0
  store ptr %45, ptr %44, align 8
  %46 = getelementptr inbounds { ptr, i8 }, ptr %coerce12, i32 0, i32 1
  %47 = extractvalue { ptr, i8 } %call11, 1
  store i8 %47, ptr %46, align 8
  %48 = load ptr, ptr %v.addr, align 8
  %49 = load ptr, ptr %node.addr, align 8
  %_tsModifiers = getelementptr inbounds %"class.hermes::ESTree::ClassPropertyNode", ptr %49, i32 0, i32 9
  %50 = load ptr, ptr %_tsModifiers, align 8
  %51 = load ptr, ptr %node.addr, align 8
  %call13 = call { ptr, i8 } @_ZN6hermes6ESTree24RecursiveVisitorDispatchINS_12_GLOBAL__N_119DependencyExtractorELb1EE5visitERS3_PNS0_4NodeES7_(ptr noundef nonnull align 8 dereferenceable(145) %48, ptr noundef %50, ptr noundef %51)
  %52 = getelementptr inbounds { ptr, i8 }, ptr %coerce14, i32 0, i32 0
  %53 = extractvalue { ptr, i8 } %call13, 0
  store ptr %53, ptr %52, align 8
  %54 = getelementptr inbounds { ptr, i8 }, ptr %coerce14, i32 0, i32 1
  %55 = extractvalue { ptr, i8 } %call13, 1
  store i8 %55, ptr %54, align 8
  ret void
}